ARM GAS  /tmp/ccZKKIi6.s 			page 1


   1              		.cpu cortex-m4
   2              		.arch armv7e-m
   3              		.fpu fpv4-sp-d16
   4              		.eabi_attribute 27, 1
   5              		.eabi_attribute 28, 1
   6              		.eabi_attribute 20, 1
   7              		.eabi_attribute 21, 1
   8              		.eabi_attribute 23, 3
   9              		.eabi_attribute 24, 1
  10              		.eabi_attribute 25, 1
  11              		.eabi_attribute 26, 1
  12              		.eabi_attribute 30, 1
  13              		.eabi_attribute 34, 1
  14              		.eabi_attribute 18, 4
  15              		.file	"dac.c"
  16              		.text
  17              	.Ltext0:
  18              		.cfi_sections	.debug_frame
  19              		.section	.text.MX_DAC3_Init,"ax",%progbits
  20              		.align	1
  21              		.global	MX_DAC3_Init
  22              		.syntax unified
  23              		.thumb
  24              		.thumb_func
  26              	MX_DAC3_Init:
  27              	.LFB132:
  28              		.file 1 "Core/Src/dac.c"
   1:Core/Src/dac.c **** /* USER CODE BEGIN Header */
   2:Core/Src/dac.c **** /**
   3:Core/Src/dac.c ****   ******************************************************************************
   4:Core/Src/dac.c ****   * @file    dac.c
   5:Core/Src/dac.c ****   * @brief   This file provides code for the configuration
   6:Core/Src/dac.c ****   *          of the DAC instances.
   7:Core/Src/dac.c ****   ******************************************************************************
   8:Core/Src/dac.c ****   * @attention
   9:Core/Src/dac.c ****   *
  10:Core/Src/dac.c ****   * Copyright (c) 2022 STMicroelectronics.
  11:Core/Src/dac.c ****   * All rights reserved.
  12:Core/Src/dac.c ****   *
  13:Core/Src/dac.c ****   * This software is licensed under terms that can be found in the LICENSE file
  14:Core/Src/dac.c ****   * in the root directory of this software component.
  15:Core/Src/dac.c ****   * If no LICENSE file comes with this software, it is provided AS-IS.
  16:Core/Src/dac.c ****   *
  17:Core/Src/dac.c ****   ******************************************************************************
  18:Core/Src/dac.c ****   */
  19:Core/Src/dac.c **** /* USER CODE END Header */
  20:Core/Src/dac.c **** /* Includes ------------------------------------------------------------------*/
  21:Core/Src/dac.c **** #include "dac.h"
  22:Core/Src/dac.c **** 
  23:Core/Src/dac.c **** /* USER CODE BEGIN 0 */
  24:Core/Src/dac.c **** 
  25:Core/Src/dac.c **** /* USER CODE END 0 */
  26:Core/Src/dac.c **** 
  27:Core/Src/dac.c **** DAC_HandleTypeDef hdac3;
  28:Core/Src/dac.c **** DMA_HandleTypeDef hdma_dac3_ch1;
  29:Core/Src/dac.c **** 
  30:Core/Src/dac.c **** /* DAC3 init function */
ARM GAS  /tmp/ccZKKIi6.s 			page 2


  31:Core/Src/dac.c **** void MX_DAC3_Init(void)
  32:Core/Src/dac.c **** {
  29              		.loc 1 32 1 view -0
  30              		.cfi_startproc
  31              		@ args = 0, pretend = 0, frame = 48
  32              		@ frame_needed = 0, uses_anonymous_args = 0
  33 0000 00B5     		push	{lr}
  34              	.LCFI0:
  35              		.cfi_def_cfa_offset 4
  36              		.cfi_offset 14, -4
  37 0002 8DB0     		sub	sp, sp, #52
  38              	.LCFI1:
  39              		.cfi_def_cfa_offset 56
  33:Core/Src/dac.c **** 
  34:Core/Src/dac.c ****   /* USER CODE BEGIN DAC3_Init 0 */
  35:Core/Src/dac.c **** 
  36:Core/Src/dac.c ****   /* USER CODE END DAC3_Init 0 */
  37:Core/Src/dac.c **** 
  38:Core/Src/dac.c ****   DAC_ChannelConfTypeDef sConfig = {0};
  40              		.loc 1 38 3 view .LVU1
  41              		.loc 1 38 26 is_stmt 0 view .LVU2
  42 0004 3022     		movs	r2, #48
  43 0006 0021     		movs	r1, #0
  44 0008 6846     		mov	r0, sp
  45 000a FFF7FEFF 		bl	memset
  46              	.LVL0:
  39:Core/Src/dac.c **** 
  40:Core/Src/dac.c ****   /* USER CODE BEGIN DAC3_Init 1 */
  41:Core/Src/dac.c **** 
  42:Core/Src/dac.c ****   /* USER CODE END DAC3_Init 1 */
  43:Core/Src/dac.c ****   /** DAC Initialization
  44:Core/Src/dac.c ****   */
  45:Core/Src/dac.c ****   hdac3.Instance = DAC3;
  47              		.loc 1 45 3 is_stmt 1 view .LVU3
  48              		.loc 1 45 18 is_stmt 0 view .LVU4
  49 000e 1148     		ldr	r0, .L7
  50 0010 114B     		ldr	r3, .L7+4
  51 0012 0360     		str	r3, [r0]
  46:Core/Src/dac.c ****   if (HAL_DAC_Init(&hdac3) != HAL_OK)
  52              		.loc 1 46 3 is_stmt 1 view .LVU5
  53              		.loc 1 46 7 is_stmt 0 view .LVU6
  54 0014 FFF7FEFF 		bl	HAL_DAC_Init
  55              	.LVL1:
  56              		.loc 1 46 6 view .LVU7
  57 0018 A8B9     		cbnz	r0, .L5
  58              	.L2:
  47:Core/Src/dac.c ****   {
  48:Core/Src/dac.c ****     Error_Handler();
  49:Core/Src/dac.c ****   }
  50:Core/Src/dac.c ****   /** DAC channel OUT1 config
  51:Core/Src/dac.c ****   */
  52:Core/Src/dac.c ****   sConfig.DAC_HighFrequency = DAC_HIGH_FREQUENCY_INTERFACE_MODE_AUTOMATIC;
  59              		.loc 1 52 3 is_stmt 1 view .LVU8
  60              		.loc 1 52 29 is_stmt 0 view .LVU9
  61 001a 0223     		movs	r3, #2
  62 001c 0093     		str	r3, [sp]
  53:Core/Src/dac.c ****   sConfig.DAC_DMADoubleDataMode = DISABLE;
ARM GAS  /tmp/ccZKKIi6.s 			page 3


  63              		.loc 1 53 3 is_stmt 1 view .LVU10
  64              		.loc 1 53 33 is_stmt 0 view .LVU11
  65 001e 0022     		movs	r2, #0
  66 0020 8DF80420 		strb	r2, [sp, #4]
  54:Core/Src/dac.c ****   sConfig.DAC_SignedFormat = DISABLE;
  67              		.loc 1 54 3 is_stmt 1 view .LVU12
  68              		.loc 1 54 28 is_stmt 0 view .LVU13
  69 0024 8DF80520 		strb	r2, [sp, #5]
  55:Core/Src/dac.c ****   sConfig.DAC_SampleAndHold = DAC_SAMPLEANDHOLD_DISABLE;
  70              		.loc 1 55 3 is_stmt 1 view .LVU14
  71              		.loc 1 55 29 is_stmt 0 view .LVU15
  72 0028 0292     		str	r2, [sp, #8]
  56:Core/Src/dac.c ****   sConfig.DAC_Trigger = DAC_TRIGGER_T6_TRGO;
  73              		.loc 1 56 3 is_stmt 1 view .LVU16
  74              		.loc 1 56 23 is_stmt 0 view .LVU17
  75 002a 1E21     		movs	r1, #30
  76 002c 0391     		str	r1, [sp, #12]
  57:Core/Src/dac.c ****   sConfig.DAC_Trigger2 = DAC_TRIGGER_NONE;
  77              		.loc 1 57 3 is_stmt 1 view .LVU18
  78              		.loc 1 57 24 is_stmt 0 view .LVU19
  79 002e 0492     		str	r2, [sp, #16]
  58:Core/Src/dac.c ****   sConfig.DAC_OutputBuffer = DAC_OUTPUTBUFFER_DISABLE;
  80              		.loc 1 58 3 is_stmt 1 view .LVU20
  81              		.loc 1 58 28 is_stmt 0 view .LVU21
  82 0030 0593     		str	r3, [sp, #20]
  59:Core/Src/dac.c ****   sConfig.DAC_ConnectOnChipPeripheral = DAC_CHIPCONNECT_INTERNAL;
  83              		.loc 1 59 3 is_stmt 1 view .LVU22
  84              		.loc 1 59 39 is_stmt 0 view .LVU23
  85 0032 0693     		str	r3, [sp, #24]
  60:Core/Src/dac.c ****   sConfig.DAC_UserTrimming = DAC_TRIMMING_FACTORY;
  86              		.loc 1 60 3 is_stmt 1 view .LVU24
  87              		.loc 1 60 28 is_stmt 0 view .LVU25
  88 0034 0792     		str	r2, [sp, #28]
  61:Core/Src/dac.c ****   if (HAL_DAC_ConfigChannel(&hdac3, &sConfig, DAC_CHANNEL_1) != HAL_OK)
  89              		.loc 1 61 3 is_stmt 1 view .LVU26
  90              		.loc 1 61 7 is_stmt 0 view .LVU27
  91 0036 6946     		mov	r1, sp
  92 0038 0648     		ldr	r0, .L7
  93 003a FFF7FEFF 		bl	HAL_DAC_ConfigChannel
  94              	.LVL2:
  95              		.loc 1 61 6 view .LVU28
  96 003e 28B9     		cbnz	r0, .L6
  97              	.L1:
  62:Core/Src/dac.c ****   {
  63:Core/Src/dac.c ****     Error_Handler();
  64:Core/Src/dac.c ****   }
  65:Core/Src/dac.c ****   /* USER CODE BEGIN DAC3_Init 2 */
  66:Core/Src/dac.c **** 
  67:Core/Src/dac.c ****   /* USER CODE END DAC3_Init 2 */
  68:Core/Src/dac.c **** 
  69:Core/Src/dac.c **** }
  98              		.loc 1 69 1 view .LVU29
  99 0040 0DB0     		add	sp, sp, #52
 100              	.LCFI2:
 101              		.cfi_remember_state
 102              		.cfi_def_cfa_offset 4
 103              		@ sp needed
ARM GAS  /tmp/ccZKKIi6.s 			page 4


 104 0042 5DF804FB 		ldr	pc, [sp], #4
 105              	.L5:
 106              	.LCFI3:
 107              		.cfi_restore_state
  48:Core/Src/dac.c ****   }
 108              		.loc 1 48 5 is_stmt 1 view .LVU30
 109 0046 FFF7FEFF 		bl	Error_Handler
 110              	.LVL3:
 111 004a E6E7     		b	.L2
 112              	.L6:
  63:Core/Src/dac.c ****   }
 113              		.loc 1 63 5 view .LVU31
 114 004c FFF7FEFF 		bl	Error_Handler
 115              	.LVL4:
 116              		.loc 1 69 1 is_stmt 0 view .LVU32
 117 0050 F6E7     		b	.L1
 118              	.L8:
 119 0052 00BF     		.align	2
 120              	.L7:
 121 0054 00000000 		.word	.LANCHOR0
 122 0058 00100050 		.word	1342181376
 123              		.cfi_endproc
 124              	.LFE132:
 126              		.section	.text.HAL_DAC_MspInit,"ax",%progbits
 127              		.align	1
 128              		.global	HAL_DAC_MspInit
 129              		.syntax unified
 130              		.thumb
 131              		.thumb_func
 133              	HAL_DAC_MspInit:
 134              	.LVL5:
 135              	.LFB133:
  70:Core/Src/dac.c **** 
  71:Core/Src/dac.c **** void HAL_DAC_MspInit(DAC_HandleTypeDef* dacHandle)
  72:Core/Src/dac.c **** {
 136              		.loc 1 72 1 is_stmt 1 view -0
 137              		.cfi_startproc
 138              		@ args = 0, pretend = 0, frame = 8
 139              		@ frame_needed = 0, uses_anonymous_args = 0
  73:Core/Src/dac.c **** 
  74:Core/Src/dac.c ****   if(dacHandle->Instance==DAC3)
 140              		.loc 1 74 3 view .LVU34
 141              		.loc 1 74 15 is_stmt 0 view .LVU35
 142 0000 0268     		ldr	r2, [r0]
 143              		.loc 1 74 5 view .LVU36
 144 0002 1A4B     		ldr	r3, .L18
 145 0004 9A42     		cmp	r2, r3
 146 0006 00D0     		beq	.L16
 147 0008 7047     		bx	lr
 148              	.L16:
  72:Core/Src/dac.c **** 
 149              		.loc 1 72 1 view .LVU37
 150 000a 10B5     		push	{r4, lr}
 151              	.LCFI4:
 152              		.cfi_def_cfa_offset 8
 153              		.cfi_offset 4, -8
 154              		.cfi_offset 14, -4
ARM GAS  /tmp/ccZKKIi6.s 			page 5


 155 000c 82B0     		sub	sp, sp, #8
 156              	.LCFI5:
 157              		.cfi_def_cfa_offset 16
 158 000e 0446     		mov	r4, r0
  75:Core/Src/dac.c ****   {
  76:Core/Src/dac.c ****   /* USER CODE BEGIN DAC3_MspInit 0 */
  77:Core/Src/dac.c **** 
  78:Core/Src/dac.c ****   /* USER CODE END DAC3_MspInit 0 */
  79:Core/Src/dac.c ****     /* DAC3 clock enable */
  80:Core/Src/dac.c ****     __HAL_RCC_DAC3_CLK_ENABLE();
 159              		.loc 1 80 5 is_stmt 1 view .LVU38
 160              	.LBB2:
 161              		.loc 1 80 5 view .LVU39
 162              		.loc 1 80 5 view .LVU40
 163 0010 03F17043 		add	r3, r3, #-268435456
 164 0014 03F50033 		add	r3, r3, #131072
 165 0018 DA6C     		ldr	r2, [r3, #76]
 166 001a 42F48022 		orr	r2, r2, #262144
 167 001e DA64     		str	r2, [r3, #76]
 168              		.loc 1 80 5 view .LVU41
 169 0020 DB6C     		ldr	r3, [r3, #76]
 170 0022 03F48023 		and	r3, r3, #262144
 171 0026 0193     		str	r3, [sp, #4]
 172              		.loc 1 80 5 view .LVU42
 173 0028 019B     		ldr	r3, [sp, #4]
 174              	.LBE2:
 175              		.loc 1 80 5 view .LVU43
  81:Core/Src/dac.c **** 
  82:Core/Src/dac.c ****     /* DAC3 DMA Init */
  83:Core/Src/dac.c ****     /* DAC3_CH1 Init */
  84:Core/Src/dac.c ****     hdma_dac3_ch1.Instance = DMA1_Channel1;
 176              		.loc 1 84 5 view .LVU44
 177              		.loc 1 84 28 is_stmt 0 view .LVU45
 178 002a 1148     		ldr	r0, .L18+4
 179              	.LVL6:
 180              		.loc 1 84 28 view .LVU46
 181 002c 114B     		ldr	r3, .L18+8
 182 002e 0360     		str	r3, [r0]
  85:Core/Src/dac.c ****     hdma_dac3_ch1.Init.Request = DMA_REQUEST_DAC3_CHANNEL1;
 183              		.loc 1 85 5 is_stmt 1 view .LVU47
 184              		.loc 1 85 32 is_stmt 0 view .LVU48
 185 0030 6623     		movs	r3, #102
 186 0032 4360     		str	r3, [r0, #4]
  86:Core/Src/dac.c ****     hdma_dac3_ch1.Init.Direction = DMA_MEMORY_TO_PERIPH;
 187              		.loc 1 86 5 is_stmt 1 view .LVU49
 188              		.loc 1 86 34 is_stmt 0 view .LVU50
 189 0034 1023     		movs	r3, #16
 190 0036 8360     		str	r3, [r0, #8]
  87:Core/Src/dac.c ****     hdma_dac3_ch1.Init.PeriphInc = DMA_PINC_DISABLE;
 191              		.loc 1 87 5 is_stmt 1 view .LVU51
 192              		.loc 1 87 34 is_stmt 0 view .LVU52
 193 0038 0023     		movs	r3, #0
 194 003a C360     		str	r3, [r0, #12]
  88:Core/Src/dac.c ****     hdma_dac3_ch1.Init.MemInc = DMA_MINC_ENABLE;
 195              		.loc 1 88 5 is_stmt 1 view .LVU53
 196              		.loc 1 88 31 is_stmt 0 view .LVU54
 197 003c 8023     		movs	r3, #128
ARM GAS  /tmp/ccZKKIi6.s 			page 6


 198 003e 0361     		str	r3, [r0, #16]
  89:Core/Src/dac.c ****     hdma_dac3_ch1.Init.PeriphDataAlignment = DMA_PDATAALIGN_WORD;
 199              		.loc 1 89 5 is_stmt 1 view .LVU55
 200              		.loc 1 89 44 is_stmt 0 view .LVU56
 201 0040 4FF40073 		mov	r3, #512
 202 0044 4361     		str	r3, [r0, #20]
  90:Core/Src/dac.c ****     hdma_dac3_ch1.Init.MemDataAlignment = DMA_MDATAALIGN_HALFWORD;
 203              		.loc 1 90 5 is_stmt 1 view .LVU57
 204              		.loc 1 90 41 is_stmt 0 view .LVU58
 205 0046 4FF48063 		mov	r3, #1024
 206 004a 8361     		str	r3, [r0, #24]
  91:Core/Src/dac.c ****     hdma_dac3_ch1.Init.Mode = DMA_CIRCULAR;
 207              		.loc 1 91 5 is_stmt 1 view .LVU59
 208              		.loc 1 91 29 is_stmt 0 view .LVU60
 209 004c 2023     		movs	r3, #32
 210 004e C361     		str	r3, [r0, #28]
  92:Core/Src/dac.c ****     hdma_dac3_ch1.Init.Priority = DMA_PRIORITY_VERY_HIGH;
 211              		.loc 1 92 5 is_stmt 1 view .LVU61
 212              		.loc 1 92 33 is_stmt 0 view .LVU62
 213 0050 4FF44053 		mov	r3, #12288
 214 0054 0362     		str	r3, [r0, #32]
  93:Core/Src/dac.c ****     if (HAL_DMA_Init(&hdma_dac3_ch1) != HAL_OK)
 215              		.loc 1 93 5 is_stmt 1 view .LVU63
 216              		.loc 1 93 9 is_stmt 0 view .LVU64
 217 0056 FFF7FEFF 		bl	HAL_DMA_Init
 218              	.LVL7:
 219              		.loc 1 93 8 view .LVU65
 220 005a 20B9     		cbnz	r0, .L17
 221              	.L11:
  94:Core/Src/dac.c ****     {
  95:Core/Src/dac.c ****       Error_Handler();
  96:Core/Src/dac.c ****     }
  97:Core/Src/dac.c **** 
  98:Core/Src/dac.c ****     __HAL_LINKDMA(dacHandle,DMA_Handle1,hdma_dac3_ch1);
 222              		.loc 1 98 5 is_stmt 1 view .LVU66
 223              		.loc 1 98 5 view .LVU67
 224 005c 044B     		ldr	r3, .L18+4
 225 005e A360     		str	r3, [r4, #8]
 226              		.loc 1 98 5 view .LVU68
 227 0060 9C62     		str	r4, [r3, #40]
 228              		.loc 1 98 5 view .LVU69
  99:Core/Src/dac.c **** 
 100:Core/Src/dac.c ****   /* USER CODE BEGIN DAC3_MspInit 1 */
 101:Core/Src/dac.c **** 
 102:Core/Src/dac.c ****   /* USER CODE END DAC3_MspInit 1 */
 103:Core/Src/dac.c ****   }
 104:Core/Src/dac.c **** }
 229              		.loc 1 104 1 is_stmt 0 view .LVU70
 230 0062 02B0     		add	sp, sp, #8
 231              	.LCFI6:
 232              		.cfi_remember_state
 233              		.cfi_def_cfa_offset 8
 234              		@ sp needed
 235 0064 10BD     		pop	{r4, pc}
 236              	.LVL8:
 237              	.L17:
 238              	.LCFI7:
ARM GAS  /tmp/ccZKKIi6.s 			page 7


 239              		.cfi_restore_state
  95:Core/Src/dac.c ****     }
 240              		.loc 1 95 7 is_stmt 1 view .LVU71
 241 0066 FFF7FEFF 		bl	Error_Handler
 242              	.LVL9:
 243 006a F7E7     		b	.L11
 244              	.L19:
 245              		.align	2
 246              	.L18:
 247 006c 00100050 		.word	1342181376
 248 0070 00000000 		.word	.LANCHOR1
 249 0074 08000240 		.word	1073872904
 250              		.cfi_endproc
 251              	.LFE133:
 253              		.section	.text.HAL_DAC_MspDeInit,"ax",%progbits
 254              		.align	1
 255              		.global	HAL_DAC_MspDeInit
 256              		.syntax unified
 257              		.thumb
 258              		.thumb_func
 260              	HAL_DAC_MspDeInit:
 261              	.LVL10:
 262              	.LFB134:
 105:Core/Src/dac.c **** 
 106:Core/Src/dac.c **** void HAL_DAC_MspDeInit(DAC_HandleTypeDef* dacHandle)
 107:Core/Src/dac.c **** {
 263              		.loc 1 107 1 view -0
 264              		.cfi_startproc
 265              		@ args = 0, pretend = 0, frame = 0
 266              		@ frame_needed = 0, uses_anonymous_args = 0
 267              		.loc 1 107 1 is_stmt 0 view .LVU73
 268 0000 08B5     		push	{r3, lr}
 269              	.LCFI8:
 270              		.cfi_def_cfa_offset 8
 271              		.cfi_offset 3, -8
 272              		.cfi_offset 14, -4
 108:Core/Src/dac.c **** 
 109:Core/Src/dac.c ****   if(dacHandle->Instance==DAC3)
 273              		.loc 1 109 3 is_stmt 1 view .LVU74
 274              		.loc 1 109 15 is_stmt 0 view .LVU75
 275 0002 0268     		ldr	r2, [r0]
 276              		.loc 1 109 5 view .LVU76
 277 0004 064B     		ldr	r3, .L24
 278 0006 9A42     		cmp	r2, r3
 279 0008 00D0     		beq	.L23
 280              	.LVL11:
 281              	.L20:
 110:Core/Src/dac.c ****   {
 111:Core/Src/dac.c ****   /* USER CODE BEGIN DAC3_MspDeInit 0 */
 112:Core/Src/dac.c **** 
 113:Core/Src/dac.c ****   /* USER CODE END DAC3_MspDeInit 0 */
 114:Core/Src/dac.c ****     /* Peripheral clock disable */
 115:Core/Src/dac.c ****     __HAL_RCC_DAC3_CLK_DISABLE();
 116:Core/Src/dac.c **** 
 117:Core/Src/dac.c ****     /* DAC3 DMA DeInit */
 118:Core/Src/dac.c ****     HAL_DMA_DeInit(dacHandle->DMA_Handle1);
 119:Core/Src/dac.c ****   /* USER CODE BEGIN DAC3_MspDeInit 1 */
ARM GAS  /tmp/ccZKKIi6.s 			page 8


 120:Core/Src/dac.c **** 
 121:Core/Src/dac.c ****   /* USER CODE END DAC3_MspDeInit 1 */
 122:Core/Src/dac.c ****   }
 123:Core/Src/dac.c **** }
 282              		.loc 1 123 1 view .LVU77
 283 000a 08BD     		pop	{r3, pc}
 284              	.LVL12:
 285              	.L23:
 115:Core/Src/dac.c **** 
 286              		.loc 1 115 5 is_stmt 1 view .LVU78
 287 000c 054A     		ldr	r2, .L24+4
 288 000e D36C     		ldr	r3, [r2, #76]
 289 0010 23F48023 		bic	r3, r3, #262144
 290 0014 D364     		str	r3, [r2, #76]
 118:Core/Src/dac.c ****   /* USER CODE BEGIN DAC3_MspDeInit 1 */
 291              		.loc 1 118 5 view .LVU79
 292 0016 8068     		ldr	r0, [r0, #8]
 293              	.LVL13:
 118:Core/Src/dac.c ****   /* USER CODE BEGIN DAC3_MspDeInit 1 */
 294              		.loc 1 118 5 is_stmt 0 view .LVU80
 295 0018 FFF7FEFF 		bl	HAL_DMA_DeInit
 296              	.LVL14:
 297              		.loc 1 123 1 view .LVU81
 298 001c F5E7     		b	.L20
 299              	.L25:
 300 001e 00BF     		.align	2
 301              	.L24:
 302 0020 00100050 		.word	1342181376
 303 0024 00100240 		.word	1073876992
 304              		.cfi_endproc
 305              	.LFE134:
 307              		.global	hdma_dac3_ch1
 308              		.global	hdac3
 309              		.section	.bss.hdac3,"aw",%nobits
 310              		.align	2
 311              		.set	.LANCHOR0,. + 0
 314              	hdac3:
 315 0000 00000000 		.space	20
 315      00000000 
 315      00000000 
 315      00000000 
 315      00000000 
 316              		.section	.bss.hdma_dac3_ch1,"aw",%nobits
 317              		.align	2
 318              		.set	.LANCHOR1,. + 0
 321              	hdma_dac3_ch1:
 322 0000 00000000 		.space	96
 322      00000000 
 322      00000000 
 322      00000000 
 322      00000000 
 323              		.text
 324              	.Letext0:
 325              		.file 2 "/home/alexw/.config/Code/User/globalStorage/bmd.stm32-for-vscode/@xpack-dev-tools/arm-non
 326              		.file 3 "/home/alexw/.config/Code/User/globalStorage/bmd.stm32-for-vscode/@xpack-dev-tools/arm-non
 327              		.file 4 "Drivers/CMSIS/Device/ST/STM32G4xx/Include/stm32g431xx.h"
 328              		.file 5 "Drivers/CMSIS/Device/ST/STM32G4xx/Include/stm32g4xx.h"
ARM GAS  /tmp/ccZKKIi6.s 			page 9


 329              		.file 6 "Drivers/STM32G4xx_HAL_Driver/Inc/stm32g4xx_hal_def.h"
 330              		.file 7 "Drivers/STM32G4xx_HAL_Driver/Inc/stm32g4xx_hal_dma.h"
 331              		.file 8 "Drivers/STM32G4xx_HAL_Driver/Inc/stm32g4xx_hal_dac.h"
 332              		.file 9 "Core/Inc/dac.h"
 333              		.file 10 "Core/Inc/main.h"
 334              		.file 11 "<built-in>"
ARM GAS  /tmp/ccZKKIi6.s 			page 10

